; Function Attrs: nounwind sspstrong uwtable
define internal i64 @ossl_pkey_new_raw_private_key(i64 %0, i64 noundef %1, i64 noundef %2) #0 {
  %4 = alloca i32, align 4
  %5 = alloca i64, align 8
  %6 = alloca i64, align 8
  %7 = alloca i32, align 4
  store i64 %1, ptr %5, align 8, !tbaa !10
  store i64 %2, ptr %6, align 8, !tbaa !10
  call void @llvm.lifetime.start.p0(i64 4, ptr nonnull %7) #8
  %8 = call i64 @rb_string_value(ptr noundef nonnull %5) #8
  %9 = call i64 @rb_string_value(ptr noundef nonnull %6) #8
  %10 = load i64, ptr %5, align 8, !tbaa !10
  %11 = inttoptr i64 %10 to ptr
  %12 = load i64, ptr %11, align 8, !tbaa !28, !noalias !29
  %13 = and i64 %12, 8192
  %.not.i.i = icmp eq i64 %13, 0
  %14 = getelementptr inbounds nuw i8, ptr %11, i64 24
  br i1 %.not.i.i, label %RSTRING_PTR.exit, label %15

15:                                               ; preds = %3
  %.sroa.2.0.copyload.i = load ptr, ptr %14, align 8
  br label %RSTRING_PTR.exit

RSTRING_PTR.exit:                                 ; preds = %3, %15
  %.sroa.2.0.i = phi ptr [ %.sroa.2.0.copyload.i, %15 ], [ %14, %3 ]
  %16 = getelementptr inbounds nuw i8, ptr %11, i64 16
  %17 = load i64, ptr %16, align 8, !tbaa !32
  %18 = add i64 %17, 2147483648
  %.not.i.i6 = icmp ult i64 %18, 4294967296
  br i1 %.not.i.i6, label %RSTRING_LENINT.exit, label %19

19:                                               ; preds = %RSTRING_PTR.exit
  call void @rb_out_of_int(i64 noundef %17) #10
  unreachable

RSTRING_LENINT.exit:                              ; preds = %RSTRING_PTR.exit
  %20 = trunc i64 %17 to i32
  %21 = call ptr @EVP_PKEY_asn1_find_str(ptr noundef null, ptr noundef %.sroa.2.0.i, i32 noundef %20) #8
  %.not = icmp eq ptr %21, null
  br i1 %.not, label %22, label %25

22:                                               ; preds = %RSTRING_LENINT.exit
  %23 = load i64, ptr @ePKeyError, align 8, !tbaa !10
  %24 = load i64, ptr %5, align 8, !tbaa !10
  call void (i64, ptr, ...) @ossl_raise(i64 noundef %23, ptr noundef nonnull @.str.51, i64 noundef %24) #9
  unreachable

25:                                               ; preds = %RSTRING_LENINT.exit
  %26 = call i32 @EVP_PKEY_asn1_get0_info(ptr noundef nonnull %7, ptr noundef null, ptr noundef null, ptr noundef null, ptr noundef null, ptr noundef nonnull %21) #8
  %27 = load i64, ptr %6, align 8, !tbaa !10
  %28 = inttoptr i64 %27 to ptr
  %29 = getelementptr inbounds nuw i8, ptr %28, i64 16
  %30 = load i64, ptr %29, align 8, !tbaa !32
  %31 = load i32, ptr %7, align 4, !tbaa !6
  %32 = load i64, ptr %28, align 8, !tbaa !28, !noalias !34
  %33 = and i64 %32, 8192
  %.not.i.i7 = icmp eq i64 %33, 0
  %34 = getelementptr inbounds nuw i8, ptr %28, i64 24
  br i1 %.not.i.i7, label %RSTRING_PTR.exit10, label %35

35:                                               ; preds = %25
  %.sroa.2.0.copyload.i8 = load ptr, ptr %34, align 8
  br label %RSTRING_PTR.exit10

RSTRING_PTR.exit10:                               ; preds = %25, %35
  %.sroa.2.0.i9 = phi ptr [ %.sroa.2.0.copyload.i8, %35 ], [ %34, %25 ]
  %36 = call ptr @EVP_PKEY_new_raw_private_key(i32 noundef %31, ptr noundef null, ptr noundef %.sroa.2.0.i9, i64 noundef %30) #8
  %.not5 = icmp eq ptr %36, null
  br i1 %.not5, label %37, label %39

37:                                               ; preds = %RSTRING_PTR.exit10
  %38 = load i64, ptr @ePKeyError, align 8, !tbaa !10
  call void (i64, ptr, ...) @ossl_raise(i64 noundef %38, ptr noundef nonnull @.str.52) #9
  unreachable

39:                                               ; preds = %RSTRING_PTR.exit10
  call void @llvm.lifetime.start.p0(i64 4, ptr nonnull %4) #8
  %40 = ptrtoint ptr %36 to i64
  %41 = call i64 @rb_protect(ptr noundef nonnull @pkey_new0, i64 noundef %40, ptr noundef nonnull %4) #8
  %42 = load i32, ptr %4, align 4, !tbaa !6
  %.not.i = icmp eq i32 %42, 0
  br i1 %.not.i, label %ossl_pkey_new.exit, label %43

43:                                               ; preds = %39
  call void @EVP_PKEY_free(ptr noundef nonnull %36) #8
  %44 = load i32, ptr %4, align 4, !tbaa !6
  call void @rb_jump_tag(i32 noundef %44) #9
  unreachable

ossl_pkey_new.exit:                               ; preds = %39
  call void @llvm.lifetime.end.p0(i64 4, ptr nonnull %4) #8
  call void @llvm.lifetime.end.p0(i64 4, ptr nonnull %7) #8
  ret i64 %41
}